; Function Attrs: nounwind uwtable
define internal noundef i32 @CVDiagFree(ptr noundef captures(none) %0) #0 {
  %2 = getelementptr inbounds nuw i8, ptr %0, i64 2016
  %3 = load ptr, ptr %2, align 8, !tbaa !35
  %4 = getelementptr inbounds nuw i8, ptr %3, i64 8
  %5 = load ptr, ptr %4, align 8, !tbaa !32
  tail call void @N_VDestroy(ptr noundef %5) #8
  %6 = getelementptr inbounds nuw i8, ptr %3, i64 16
  %7 = load ptr, ptr %6, align 8, !tbaa !33
  tail call void @N_VDestroy(ptr noundef %7) #8
  %8 = getelementptr inbounds nuw i8, ptr %3, i64 24
  %9 = load ptr, ptr %8, align 8, !tbaa !34
  tail call void @N_VDestroy(ptr noundef %9) #8
  tail call void @free(ptr noundef %3) #8
  store ptr null, ptr %2, align 8, !tbaa !35
  ret i32 0
}